; Function Attrs: null_pointer_is_valid sspstrong uwtable
define internal void @dissect_imf_address_list(ptr noundef %0, i32 noundef %1, i32 noundef %2, ptr noundef %3, ptr noundef readnone captures(none) %4) #0 {
  %6 = load i32, ptr @ett_imf_address_list, align 4
  %7 = tail call ptr @proto_item_add_subtree(ptr noundef %3, i32 noundef %6)
  br label %8

8:                                                ; preds = %8, %5
  %.029 = phi i32 [ 0, %5 ], [ %11, %8 ]
  %.028 = phi i32 [ %1, %5 ], [ %16, %8 ]
  %.neg = sub i32 %1, %.028
  %9 = add i32 %.neg, %2
  %10 = tail call i32 @tvb_find_uint8(ptr noundef %0, i32 noundef %.028, i32 noundef %9, i8 noundef zeroext 44)
  %11 = add i32 %.029, 1
  %12 = icmp eq i32 %10, -1
  %13 = sub i32 %10, %.028
  %.0 = select i1 %12, i32 %9, i32 %13
  %14 = load i32, ptr @hf_imf_address_list_item, align 4
  %15 = tail call ptr @proto_tree_add_item(ptr noundef %7, i32 noundef %14, ptr noundef %0, i32 noundef %.028, i32 noundef %.0, i32 noundef 0)
  tail call void @dissect_imf_address(ptr noundef %0, i32 noundef %.028, i32 noundef %.0, ptr noundef %15, ptr noundef %4)
  %16 = add nuw i32 %10, 1
  br i1 %12, label %17, label %8, !llvm.loop !24

17:                                               ; preds = %8
  %18 = icmp eq i32 %.029, 0
  %19 = select i1 %18, ptr @.str.189, ptr @.str.202
  tail call void (ptr, ptr, ...) @proto_item_append_text(ptr noundef %3, ptr noundef nonnull @.str.201, i32 noundef %11, ptr noundef nonnull %19)
  ret void
}